; Function Attrs: mustprogress uwtable
define hidden noundef i64 @_ZNK11opencv_onnx26TensorShapeProto_Dimension12ByteSizeLongEv(ptr noundef nonnull align 8 dereferenceable(48) %0) unnamed_addr #3 align 2 {
  %2 = getelementptr inbounds nuw i8, ptr %0, i64 16
  %3 = load i32, ptr %2, align 8, !tbaa !51
  %4 = and i32 %3, 1
  %.not = icmp eq i32 %4, 0
  br i1 %.not, label %23, label %5

5:                                                ; preds = %1
  %6 = getelementptr inbounds nuw i8, ptr %0, i64 24
  %7 = load ptr, ptr %6, align 8, !tbaa !41
  %8 = ptrtoint ptr %7 to i64
  %9 = and i64 %8, -2
  %10 = inttoptr i64 %9 to ptr
  %11 = getelementptr inbounds nuw i8, ptr %10, i64 8
  %12 = load i64, ptr %11, align 8, !tbaa !53
  %13 = trunc i64 %12 to i32
  %14 = or i32 %13, 1
  %15 = tail call range(i32 0, 33) i32 @llvm.ctlz.i32(i32 %14, i1 true)
  %16 = xor i32 %15, 31
  %17 = mul nuw nsw i32 %16, 9
  %18 = add nuw nsw i32 %17, 73
  %19 = lshr i32 %18, 6
  %20 = zext nneg i32 %19 to i64
  %21 = add i64 %12, 1
  %22 = add i64 %21, %20
  br label %23

23:                                               ; preds = %5, %1
  %.0 = phi i64 [ %22, %5 ], [ 0, %1 ]
  %24 = getelementptr inbounds nuw i8, ptr %0, i64 40
  %25 = load i32, ptr %24, align 8, !tbaa !51
  switch i32 %25, label %55 [
    i32 1, label %26
    i32 2, label %36
  ]

26:                                               ; preds = %23
  %27 = getelementptr inbounds nuw i8, ptr %0, i64 32
  %28 = load i64, ptr %27, align 8
  %29 = or i64 %28, 1
  %30 = tail call range(i64 0, 65) i64 @llvm.ctlz.i64(i64 %29, i1 true)
  %31 = xor i64 %30, 63
  %32 = mul nuw nsw i64 %31, 9
  %33 = add nuw nsw i64 %32, 137
  %34 = lshr i64 %33, 6
  %35 = add i64 %34, %.0
  br label %55

36:                                               ; preds = %23
  %37 = getelementptr inbounds nuw i8, ptr %0, i64 32
  %38 = load ptr, ptr %37, align 8
  %39 = ptrtoint ptr %38 to i64
  %40 = and i64 %39, -2
  %41 = inttoptr i64 %40 to ptr
  %42 = getelementptr inbounds nuw i8, ptr %41, i64 8
  %43 = load i64, ptr %42, align 8, !tbaa !53
  %44 = trunc i64 %43 to i32
  %45 = or i32 %44, 1
  %46 = tail call range(i32 0, 33) i32 @llvm.ctlz.i32(i32 %45, i1 true)
  %47 = xor i32 %46, 31
  %48 = mul nuw nsw i32 %47, 9
  %49 = add nuw nsw i32 %48, 73
  %50 = lshr i32 %49, 6
  %51 = zext nneg i32 %50 to i64
  %52 = add i64 %.0, 1
  %53 = add i64 %52, %43
  %54 = add i64 %53, %51
  br label %55

55:                                               ; preds = %36, %26, %23
  %.1 = phi i64 [ %.0, %23 ], [ %54, %36 ], [ %35, %26 ]
  %56 = getelementptr inbounds nuw i8, ptr %0, i64 20
  %57 = tail call noundef i64 @_ZNK6google8protobuf7Message29MaybeComputeUnknownFieldsSizeEmPNS0_8internal10CachedSizeE(ptr noundef nonnull align 8 dereferenceable(16) %0, i64 noundef %.1, ptr noundef nonnull %56)
  ret i64 %57
}